target datalayout = "e-m:e-p270:32:32-p271:32:32-p272:64:64-i64:64-i128:128-f80:128-n8:16:32:64-S128"
target triple = "x86_64-pc-linux-gnu"

%struct.lv_point_t = type { i32, i32 }

@__const.lv_obj_get_self_height.p = private unnamed_addr constant %struct.lv_point_t { i32 -536870911, i32 0 }, align 4

; Function Attrs: nounwind uwtable
define i32 @lv_obj_get_self_height(ptr noundef %0) #0 {
  %2 = alloca ptr, align 8
  %3 = alloca %struct.lv_point_t, align 4
  store ptr %0, ptr %2, align 8, !tbaa !3
  call void @llvm.lifetime.start.p0(i64 8, ptr %3) #5
  call void @llvm.memcpy.p0.p0.i64(ptr align 4 %3, ptr align 4 @__const.lv_obj_get_self_height.p, i64 8, i1 false)
  %4 = load ptr, ptr %2, align 8, !tbaa !3
  %5 = call i32 @lv_obj_send_event(ptr noundef %4, i32 noundef 52, ptr noundef %3)
  %6 = getelementptr inbounds nuw %struct.lv_point_t, ptr %3, i32 0, i32 1
  %7 = load i32, ptr %6, align 4, !tbaa !51
  call void @llvm.lifetime.end.p0(i64 8, ptr %3) #5
  ret i32 %7
}