; Function Attrs: nounwind uwtable
define i32 @lv_obj_get_self_height(ptr noundef %0) local_unnamed_addr #0 {
  %2 = alloca %struct.lv_point_t, align 8
  call void @llvm.lifetime.start.p0(i64 8, ptr nonnull %2) #8
  store i64 3758096385, ptr %2, align 8
  %3 = call i32 @lv_obj_send_event(ptr noundef %0, i32 noundef 52, ptr noundef nonnull %2) #8
  %4 = getelementptr inbounds nuw i8, ptr %2, i64 4
  %5 = load i32, ptr %4, align 4, !tbaa !27
  call void @llvm.lifetime.end.p0(i64 8, ptr nonnull %2) #8
  ret i32 %5
}